ARM GAS  C:\Users\khjtony\AppData\Local\Temp\ccVYID9g.s 			page 1


   1              		.syntax unified
   2              		.cpu cortex-m3
   3              		.fpu softvfp
   4              		.eabi_attribute 20, 1
   5              		.eabi_attribute 21, 1
   6              		.eabi_attribute 23, 3
   7              		.eabi_attribute 24, 1
   8              		.eabi_attribute 25, 1
   9              		.eabi_attribute 26, 1
  10              		.eabi_attribute 30, 6
  11              		.eabi_attribute 34, 1
  12              		.eabi_attribute 18, 4
  13              		.thumb
  14              		.file	"can_manager.c"
  15              		.text
  16              	.Ltext0:
  17              		.cfi_sections	.debug_frame
  18              		.global	test_message
  19              		.section	.rodata
  20              		.align	2
  21              		.type	test_message, %object
  22              		.size	test_message, 8
  23              	test_message:
  24 0000 01       		.byte	1
  25 0001 02       		.byte	2
  26 0002 03       		.byte	3
  27 0003 04       		.byte	4
  28 0004 05       		.byte	5
  29 0005 06       		.byte	6
  30 0006 07       		.byte	7
  31 0007 08       		.byte	8
  32              		.comm	can_queue,2048,4
  33              		.global	can_head
  34              		.bss
  35              		.align	1
  36              		.type	can_head, %object
  37              		.size	can_head, 2
  38              	can_head:
  39 0000 0000     		.space	2
  40              		.global	can_tail
  41              		.align	1
  42              		.type	can_tail, %object
  43              		.size	can_tail, 2
  44              	can_tail:
  45 0002 0000     		.space	2
  46              		.section	.text.can_init,"ax",%progbits
  47              		.align	2
  48              		.global	can_init
  49              		.thumb
  50              		.thumb_func
  51              		.type	can_init, %function
  52              	can_init:
  53              	.LFB56:
  54              		.file 1 ".\\can_manager.c"
   1:.\can_manager.c **** #include "can_manager.h"
   2:.\can_manager.c **** #include "stdlib.h"
   3:.\can_manager.c **** 
ARM GAS  C:\Users\khjtony\AppData\Local\Temp\ccVYID9g.s 			page 2


   4:.\can_manager.c **** 
   5:.\can_manager.c **** const uint8_t test_message[] = {0x01,0x02,0x03,0x04,0x05,0x06,0x07,0x08};
   6:.\can_manager.c **** volatile DataPacket can_queue[CAN_QUEUE_LENGTH];
   7:.\can_manager.c **** volatile uint16_t can_head = 0;
   8:.\can_manager.c **** volatile uint16_t can_tail = 0;
   9:.\can_manager.c **** 
  10:.\can_manager.c **** 
  11:.\can_manager.c **** 
  12:.\can_manager.c **** void can_init()
  13:.\can_manager.c **** {
  55              		.loc 1 13 0
  56              		.cfi_startproc
  57              		@ args = 0, pretend = 0, frame = 0
  58              		@ frame_needed = 1, uses_anonymous_args = 0
  59 0000 80B5     		push	{r7, lr}
  60              		.cfi_def_cfa_offset 8
  61              		.cfi_offset 7, -8
  62              		.cfi_offset 14, -4
  63 0002 00AF     		add	r7, sp, #0
  64              		.cfi_def_cfa_register 7
  14:.\can_manager.c **** 	CAN_1_GlobalIntEnable(); // CAN Initialization
  65              		.loc 1 14 0
  66 0004 FFF7FEFF 		bl	CAN_1_GlobalIntEnable
  15:.\can_manager.c **** 	CAN_1_Init();
  67              		.loc 1 15 0
  68 0008 FFF7FEFF 		bl	CAN_1_Init
  16:.\can_manager.c **** 	CAN_1_Start();
  69              		.loc 1 16 0
  70 000c FFF7FEFF 		bl	CAN_1_Start
  17:.\can_manager.c **** } // can_init()
  71              		.loc 1 17 0
  72 0010 80BD     		pop	{r7, pc}
  73              		.cfi_endproc
  74              	.LFE56:
  75              		.size	can_init, .-can_init
  76 0012 00BF     		.section	.text.can_test_send,"ax",%progbits
  77              		.align	2
  78              		.global	can_test_send
  79              		.thumb
  80              		.thumb_func
  81              		.type	can_test_send, %function
  82              	can_test_send:
  83              	.LFB57:
  18:.\can_manager.c **** 
  19:.\can_manager.c **** 
  20:.\can_manager.c **** 
  21:.\can_manager.c **** 
  22:.\can_manager.c **** uint8_t can_test_send(uint16_t ID,uint8_t msg[8])
  23:.\can_manager.c **** {
  84              		.loc 1 23 0
  85              		.cfi_startproc
  86              		@ args = 0, pretend = 0, frame = 32
  87              		@ frame_needed = 1, uses_anonymous_args = 0
  88 0000 80B5     		push	{r7, lr}
  89              		.cfi_def_cfa_offset 8
  90              		.cfi_offset 7, -8
  91              		.cfi_offset 14, -4
ARM GAS  C:\Users\khjtony\AppData\Local\Temp\ccVYID9g.s 			page 3


  92 0002 88B0     		sub	sp, sp, #32
  93              		.cfi_def_cfa_offset 40
  94 0004 00AF     		add	r7, sp, #0
  95              		.cfi_def_cfa_register 7
  96 0006 0346     		mov	r3, r0
  97 0008 3960     		str	r1, [r7]
  98 000a FB80     		strh	r3, [r7, #6]	@ movhi
  24:.\can_manager.c **** 	uint8_t i, state;
  25:.\can_manager.c **** 	CAN_1_TX_MSG message;
  26:.\can_manager.c **** 	CAN_1_DATA_BYTES_MSG payload;
  27:.\can_manager.c **** 
  28:.\can_manager.c **** 	message.id = ID; // edit for testing
  99              		.loc 1 28 0
 100 000c FB88     		ldrh	r3, [r7, #6]
 101 000e 3B61     		str	r3, [r7, #16]
  29:.\can_manager.c **** 	message.rtr = 0;
 102              		.loc 1 29 0
 103 0010 0023     		movs	r3, #0
 104 0012 3B75     		strb	r3, [r7, #20]
  30:.\can_manager.c **** 	message.ide = 0;
 105              		.loc 1 30 0
 106 0014 0023     		movs	r3, #0
 107 0016 7B75     		strb	r3, [r7, #21]
  31:.\can_manager.c **** 	message.dlc = 0x08;
 108              		.loc 1 31 0
 109 0018 0823     		movs	r3, #8
 110 001a BB75     		strb	r3, [r7, #22]
  32:.\can_manager.c **** 	message.irq = 1;
 111              		.loc 1 32 0
 112 001c 0123     		movs	r3, #1
 113 001e FB75     		strb	r3, [r7, #23]
  33:.\can_manager.c **** 	message.msg = &payload;
 114              		.loc 1 33 0
 115 0020 07F10803 		add	r3, r7, #8
 116 0024 BB61     		str	r3, [r7, #24]
  34:.\can_manager.c **** 
  35:.\can_manager.c **** 	for(i=0;i<8;i++)
 117              		.loc 1 35 0
 118 0026 0023     		movs	r3, #0
 119 0028 FB77     		strb	r3, [r7, #31]
 120 002a 0CE0     		b	.L3
 121              	.L4:
  36:.\can_manager.c **** 		payload.byte[i] = msg[i];
 122              		.loc 1 36 0 discriminator 2
 123 002c FB7F     		ldrb	r3, [r7, #31]	@ zero_extendqisi2
 124 002e FA7F     		ldrb	r2, [r7, #31]	@ zero_extendqisi2
 125 0030 3968     		ldr	r1, [r7]
 126 0032 0A44     		add	r2, r2, r1
 127 0034 1278     		ldrb	r2, [r2]	@ zero_extendqisi2
 128 0036 07F12001 		add	r1, r7, #32
 129 003a 0B44     		add	r3, r3, r1
 130 003c 03F8182C 		strb	r2, [r3, #-24]
  35:.\can_manager.c **** 	for(i=0;i<8;i++)
 131              		.loc 1 35 0 discriminator 2
 132 0040 FB7F     		ldrb	r3, [r7, #31]	@ zero_extendqisi2
 133 0042 0133     		adds	r3, r3, #1
 134 0044 FB77     		strb	r3, [r7, #31]
ARM GAS  C:\Users\khjtony\AppData\Local\Temp\ccVYID9g.s 			page 4


 135              	.L3:
  35:.\can_manager.c **** 	for(i=0;i<8;i++)
 136              		.loc 1 35 0 is_stmt 0 discriminator 1
 137 0046 FB7F     		ldrb	r3, [r7, #31]	@ zero_extendqisi2
 138 0048 072B     		cmp	r3, #7
 139 004a EFD9     		bls	.L4
  37:.\can_manager.c **** 
  38:.\can_manager.c **** 	state = CAN_1_SendMsg(&message);
 140              		.loc 1 38 0 is_stmt 1
 141 004c 07F11003 		add	r3, r7, #16
 142 0050 1846     		mov	r0, r3
 143 0052 FFF7FEFF 		bl	CAN_1_SendMsg
 144 0056 0346     		mov	r3, r0
 145 0058 BB77     		strb	r3, [r7, #30]
  39:.\can_manager.c **** 
  40:.\can_manager.c **** /*
  41:.\can_manager.c **** 	if(state != CYRET_SUCCESS)
  42:.\can_manager.c **** 	{
  43:.\can_manager.c **** 		LED_Write(1);
  44:.\can_manager.c **** 		return CAN_1_FAIL;
  45:.\can_manager.c **** 	}
  46:.\can_manager.c **** 
  47:.\can_manager.c **** 	LED_Write(0);
  48:.\can_manager.c **** 	return CYRET_SUCCESS;
  49:.\can_manager.c **** */
  50:.\can_manager.c **** 	
  51:.\can_manager.c **** 	return state;
 146              		.loc 1 51 0
 147 005a BB7F     		ldrb	r3, [r7, #30]	@ zero_extendqisi2
  52:.\can_manager.c **** } // can_test_send()
 148              		.loc 1 52 0
 149 005c 1846     		mov	r0, r3
 150 005e 2037     		adds	r7, r7, #32
 151 0060 BD46     		mov	sp, r7
 152              		@ sp needed
 153 0062 80BD     		pop	{r7, pc}
 154              		.cfi_endproc
 155              	.LFE57:
 156              		.size	can_test_send, .-can_test_send
 157              		.text
 158              	.Letext0:
 159              		.file 2 "d:\\software\\psoc\\psoc creator\\3.1\\psoc creator\\import\\gnu_cs\\arm\\4.8.4\\arm-none
 160              		.file 3 "d:\\software\\psoc\\psoc creator\\3.1\\psoc creator\\import\\gnu_cs\\arm\\4.8.4\\arm-none
 161              		.file 4 ".\\Generated_Source\\PSoC5/cytypes.h"
 162              		.file 5 ".\\Generated_Source\\PSoC5/CAN_1.h"
 163              		.file 6 ".\\data.h"
 164              		.file 7 ".\\Generated_Source\\PSoC5/core_cm3.h"