ARM GAS  C:\Users\khjtony\AppData\Local\Temp\cclZs93y.s 			page 1


   1              		.syntax unified
   2              		.cpu cortex-m3
   3              		.fpu softvfp
   4              		.eabi_attribute 20, 1
   5              		.eabi_attribute 21, 1
   6              		.eabi_attribute 23, 3
   7              		.eabi_attribute 24, 1
   8              		.eabi_attribute 25, 1
   9              		.eabi_attribute 26, 1
  10              		.eabi_attribute 30, 6
  11              		.eabi_attribute 34, 1
  12              		.eabi_attribute 18, 4
  13              		.thumb
  14              		.file	"main.c"
  15              		.text
  16              	.Ltext0:
  17              		.cfi_sections	.debug_frame
  18              		.global	__aeabi_dmul
  19              		.global	__aeabi_d2uiz
  20              		.global	__aeabi_dadd
  21              		.section	.text.main,"ax",%progbits
  22              		.align	2
  23              		.global	main
  24              		.thumb
  25              		.thumb_func
  26              		.type	main, %function
  27              	main:
  28              	.LFB56:
  29              		.file 1 ".\\main.c"
   1:.\main.c      **** /* ========================================
   2:.\main.c      ****  *
   3:.\main.c      ****  * Copyright YOUR COMPANY, THE YEAR
   4:.\main.c      ****  * All Rights Reserved
   5:.\main.c      ****  * UNPUBLISHED, LICENSED SOFTWARE.
   6:.\main.c      ****  *
   7:.\main.c      ****  * CONFIDENTIAL AND PROPRIETARY INFORMATION
   8:.\main.c      ****  * WHICH IS THE PROPERTY OF your company.
   9:.\main.c      ****  *
  10:.\main.c      ****  *this code is just genreate can bus message with payload as:
  11:.\main.c      ****  * const uint8_t test_message[] = {0x01,0x02,0x03,0x04,0x05,0x06,0x07,0x08};
  12:.\main.c      ****  * ========================================
  13:.\main.c      **** */
  14:.\main.c      **** #include <project.h>
  15:.\main.c      **** #include "can_manager.h"
  16:.\main.c      **** #include <math.h>
  17:.\main.c      **** 
  18:.\main.c      **** int main()
  19:.\main.c      **** {
  30              		.loc 1 19 0
  31              		.cfi_startproc
  32              		@ args = 0, pretend = 0, frame = 24
  33              		@ frame_needed = 1, uses_anonymous_args = 0
  34 0000 80B5     		push	{r7, lr}
  35              		.cfi_def_cfa_offset 8
  36              		.cfi_offset 7, -8
  37              		.cfi_offset 14, -4
  38 0002 86B0     		sub	sp, sp, #24
ARM GAS  C:\Users\khjtony\AppData\Local\Temp\cclZs93y.s 			page 2


  39              		.cfi_def_cfa_offset 32
  40 0004 00AF     		add	r7, sp, #0
  41              		.cfi_def_cfa_register 7
  20:.\main.c      ****     uint8_t msg[8];
  21:.\main.c      ****     double x=0;
  42              		.loc 1 21 0
  43 0006 4FF00002 		mov	r2, #0
  44 000a 4FF00003 		mov	r3, #0
  45 000e C7E90423 		strd	r2, [r7, #16]
  22:.\main.c      ****     uint32_t sin_y=0;
  46              		.loc 1 22 0
  47 0012 0023     		movs	r3, #0
  48 0014 FB60     		str	r3, [r7, #12]
  23:.\main.c      ****     uint32_t cos_y=0;
  49              		.loc 1 23 0
  50 0016 0023     		movs	r3, #0
  51 0018 BB60     		str	r3, [r7, #8]
  24:.\main.c      ****     /* Place your initialization/startup code here (e.g. MyInst_Start()) */
  25:.\main.c      ****     can_init();
  52              		.loc 1 25 0
  53 001a FFF7FEFF 		bl	can_init
  54              	.L2:
  26:.\main.c      ****     /* CyGlobalIntEnable; */ /* Uncomment this line to enable global interrupts. */
  27:.\main.c      ****     for(;;)
  28:.\main.c      ****     {
  29:.\main.c      ****         /* Place your application code here. */
  30:.\main.c      ****         sin_y=(uint32_t)round(sin(x)*0xffff);
  55              		.loc 1 30 0 discriminator 1
  56 001e D7E90401 		ldrd	r0, [r7, #16]
  57 0022 FFF7FEFF 		bl	sin
  58 0026 0246     		mov	r2, r0
  59 0028 0B46     		mov	r3, r1
  60 002a 1046     		mov	r0, r2
  61 002c 1946     		mov	r1, r3
  62 002e 2CA3     		adr	r3, .L3
  63 0030 D3E90023 		ldrd	r2, [r3]
  64 0034 FFF7FEFF 		bl	__aeabi_dmul
  65 0038 0246     		mov	r2, r0
  66 003a 0B46     		mov	r3, r1
  67 003c 1046     		mov	r0, r2
  68 003e 1946     		mov	r1, r3
  69 0040 FFF7FEFF 		bl	round
  70 0044 0246     		mov	r2, r0
  71 0046 0B46     		mov	r3, r1
  72 0048 1046     		mov	r0, r2
  73 004a 1946     		mov	r1, r3
  74 004c FFF7FEFF 		bl	__aeabi_d2uiz
  75 0050 0346     		mov	r3, r0
  76 0052 FB60     		str	r3, [r7, #12]
  31:.\main.c      ****         cos_y=(uint32_t)round(cos(x)*0xffff);
  77              		.loc 1 31 0 discriminator 1
  78 0054 D7E90401 		ldrd	r0, [r7, #16]
  79 0058 FFF7FEFF 		bl	cos
  80 005c 0246     		mov	r2, r0
  81 005e 0B46     		mov	r3, r1
  82 0060 1046     		mov	r0, r2
  83 0062 1946     		mov	r1, r3
ARM GAS  C:\Users\khjtony\AppData\Local\Temp\cclZs93y.s 			page 3


  84 0064 1EA3     		adr	r3, .L3
  85 0066 D3E90023 		ldrd	r2, [r3]
  86 006a FFF7FEFF 		bl	__aeabi_dmul
  87 006e 0246     		mov	r2, r0
  88 0070 0B46     		mov	r3, r1
  89 0072 1046     		mov	r0, r2
  90 0074 1946     		mov	r1, r3
  91 0076 FFF7FEFF 		bl	round
  92 007a 0246     		mov	r2, r0
  93 007c 0B46     		mov	r3, r1
  94 007e 1046     		mov	r0, r2
  95 0080 1946     		mov	r1, r3
  96 0082 FFF7FEFF 		bl	__aeabi_d2uiz
  97 0086 0346     		mov	r3, r0
  98 0088 BB60     		str	r3, [r7, #8]
  32:.\main.c      ****         //msg[0~3] is left
  33:.\main.c      ****         msg[0]=0x0;
  99              		.loc 1 33 0 discriminator 1
 100 008a 0023     		movs	r3, #0
 101 008c 3B70     		strb	r3, [r7]
  34:.\main.c      ****         msg[1]=0x0;
 102              		.loc 1 34 0 discriminator 1
 103 008e 0023     		movs	r3, #0
 104 0090 7B70     		strb	r3, [r7, #1]
  35:.\main.c      ****         msg[2]=(sin_y>>8)&0xff;
 105              		.loc 1 35 0 discriminator 1
 106 0092 FB68     		ldr	r3, [r7, #12]
 107 0094 1B0A     		lsrs	r3, r3, #8
 108 0096 DBB2     		uxtb	r3, r3
 109 0098 BB70     		strb	r3, [r7, #2]
  36:.\main.c      ****         msg[3]=(sin_y)&0xff;
 110              		.loc 1 36 0 discriminator 1
 111 009a FB68     		ldr	r3, [r7, #12]
 112 009c DBB2     		uxtb	r3, r3
 113 009e FB70     		strb	r3, [r7, #3]
  37:.\main.c      ****         //msg[4~7] is right
  38:.\main.c      ****         msg[0]=0x0;
 114              		.loc 1 38 0 discriminator 1
 115 00a0 0023     		movs	r3, #0
 116 00a2 3B70     		strb	r3, [r7]
  39:.\main.c      ****         msg[1]=0x0;
 117              		.loc 1 39 0 discriminator 1
 118 00a4 0023     		movs	r3, #0
 119 00a6 7B70     		strb	r3, [r7, #1]
  40:.\main.c      ****         msg[2]=(cos_y>>8)&0xff;
 120              		.loc 1 40 0 discriminator 1
 121 00a8 BB68     		ldr	r3, [r7, #8]
 122 00aa 1B0A     		lsrs	r3, r3, #8
 123 00ac DBB2     		uxtb	r3, r3
 124 00ae BB70     		strb	r3, [r7, #2]
  41:.\main.c      ****         msg[3]=(cos_y)&0xff;
 125              		.loc 1 41 0 discriminator 1
 126 00b0 BB68     		ldr	r3, [r7, #8]
 127 00b2 DBB2     		uxtb	r3, r3
 128 00b4 FB70     		strb	r3, [r7, #3]
  42:.\main.c      ****         
  43:.\main.c      ****         can_test_send(0x205,msg);
ARM GAS  C:\Users\khjtony\AppData\Local\Temp\cclZs93y.s 			page 4


 129              		.loc 1 43 0 discriminator 1
 130 00b6 3B46     		mov	r3, r7
 131 00b8 40F20520 		movw	r0, #517
 132 00bc 1946     		mov	r1, r3
 133 00be FFF7FEFF 		bl	can_test_send
  44:.\main.c      ****         x=x+0.01;
 134              		.loc 1 44 0 discriminator 1
 135 00c2 D7E90401 		ldrd	r0, [r7, #16]
 136 00c6 08A3     		adr	r3, .L3+8
 137 00c8 D3E90023 		ldrd	r2, [r3]
 138 00cc FFF7FEFF 		bl	__aeabi_dadd
 139 00d0 0246     		mov	r2, r0
 140 00d2 0B46     		mov	r3, r1
 141 00d4 C7E90423 		strd	r2, [r7, #16]
  45:.\main.c      ****         CyDelay(10);
 142              		.loc 1 45 0 discriminator 1
 143 00d8 0A20     		movs	r0, #10
 144 00da FFF7FEFF 		bl	CyDelay
  46:.\main.c      ****     }
 145              		.loc 1 46 0 discriminator 1
 146 00de 9EE7     		b	.L2
 147              	.L4:
 148              		.align	3
 149              	.L3:
 150 00e0 00000000 		.word	0
 151 00e4 E0FFEF40 		.word	1089470432
 152 00e8 7B14AE47 		.word	1202590843
 153 00ec E17A843F 		.word	1065646817
 154              		.cfi_endproc
 155              	.LFE56:
 156              		.size	main, .-main
 157              		.text
 158              	.Letext0:
 159              		.file 2 "d:\\software\\psoc\\psoc creator\\3.1\\psoc creator\\import\\gnu_cs\\arm\\4.8.4\\arm-none
 160              		.file 3 "d:\\software\\psoc\\psoc creator\\3.1\\psoc creator\\import\\gnu_cs\\arm\\4.8.4\\arm-none
 161              		.file 4 ".\\Generated_Source\\PSoC5/core_cm3.h"